target datalayout = "e-m:e-p270:32:32-p271:32:32-p272:64:64-i64:64-i128:128-f80:128-n8:16:32:64-S128"
target triple = "x86_64-unknown-linux-gnu"

%"class.nla::factorization" = type { %class.svector.100, ptr }
%class.svector.100 = type { %class.vector.101 }
%class.vector.101 = type { ptr }

; Function Attrs: mustprogress nounwind uwtable
define linkonce_odr hidden noundef nonnull align 8 dereferenceable(34) ptr @_ZNK3nla13factorization3monEv(ptr noundef nonnull align 8 dereferenceable(16) %this) #4 comdat align 2 {
entry:
  %this.addr = alloca ptr, align 8
  store ptr %this, ptr %this.addr, align 8
  %this1 = load ptr, ptr %this.addr, align 8
  %m_mon = getelementptr inbounds %"class.nla::factorization", ptr %this1, i32 0, i32 1
  %0 = load ptr, ptr %m_mon, align 8
  ret ptr %0
}

; Function Attrs: mustprogress nounwind uwtable
define linkonce_odr hidden noundef zeroext i1 @_ZNK3nla13factorization6is_monEv(ptr noundef nonnull align 8 dereferenceable(16) %this) #4 comdat align 2 {
entry:
  %this.addr = alloca ptr, align 8
  store ptr %this, ptr %this.addr, align 8
  %this1 = load ptr, ptr %this.addr, align 8
  %m_mon = getelementptr inbounds %"class.nla::factorization", ptr %this1, i32 0, i32 1
  %0 = load ptr, ptr %m_mon, align 8
  %cmp = icmp ne ptr %0, null
  ret i1 %cmp
}

; Function Attrs: mustprogress uwtable
define hidden void @_ZN3nla6basics39basic_lemma_for_mon_neutral_model_basedERKNS_5monicERKNS_13factorizationE(ptr noundef nonnull align 8 dereferenceable(184) %this, ptr noundef nonnull align 8 dereferenceable(34) %rm, ptr noundef nonnull align 8 dereferenceable(16) %f) #5 align 2 {
entry:
  %this.addr = alloca ptr, align 8
  %rm.addr = alloca ptr, align 8
  %f.addr = alloca ptr, align 8
  store ptr %this, ptr %this.addr, align 8
  store ptr %rm, ptr %rm.addr, align 8
  store ptr %f, ptr %f.addr, align 8
  %this1 = load ptr, ptr %this.addr, align 8
  %0 = load ptr, ptr %f.addr, align 8
  %call = call noundef zeroext i1 @_ZNK3nla13factorization6is_monEv(ptr noundef nonnull align 8 dereferenceable(16) %0)
  br i1 %call, label %if.then, label %if.else

if.then:                                          ; preds = %entry
  %1 = load ptr, ptr %rm.addr, align 8
  %2 = load ptr, ptr %f.addr, align 8
  %call2 = call noundef zeroext i1 @_ZN3nla6basics55basic_lemma_for_mon_neutral_monic_to_factor_model_basedERKNS_5monicERKNS_13factorizationE(ptr noundef nonnull align 8 dereferenceable(184) %this1, ptr noundef nonnull align 8 dereferenceable(34) %1, ptr noundef nonnull align 8 dereferenceable(16) %2)
  %3 = load ptr, ptr %f.addr, align 8
  %call3 = call noundef nonnull align 8 dereferenceable(34) ptr @_ZNK3nla13factorization3monEv(ptr noundef nonnull align 8 dereferenceable(16) %3)
  %call4 = call noundef zeroext i1 @_ZN3nla6basics64basic_lemma_for_mon_neutral_from_factors_to_monic_model_based_fmERKNS_5monicE(ptr noundef nonnull align 8 dereferenceable(184) %this1, ptr noundef nonnull align 8 dereferenceable(34) %call3)
  br label %if.end

if.else:                                          ; preds = %entry
  %4 = load ptr, ptr %rm.addr, align 8
  %5 = load ptr, ptr %f.addr, align 8
  %call5 = call noundef zeroext i1 @_ZN3nla6basics55basic_lemma_for_mon_neutral_monic_to_factor_model_basedERKNS_5monicERKNS_13factorizationE(ptr noundef nonnull align 8 dereferenceable(184) %this1, ptr noundef nonnull align 8 dereferenceable(34) %4, ptr noundef nonnull align 8 dereferenceable(16) %5)
  %6 = load ptr, ptr %rm.addr, align 8
  %7 = load ptr, ptr %f.addr, align 8
  %call6 = call noundef zeroext i1 @_ZN3nla6basics61basic_lemma_for_mon_neutral_from_factors_to_monic_model_basedERKNS_5monicERKNS_13factorizationE(ptr noundef nonnull align 8 dereferenceable(184) %this1, ptr noundef nonnull align 8 dereferenceable(34) %6, ptr noundef nonnull align 8 dereferenceable(16) %7)
  br label %if.end

if.end:                                           ; preds = %if.else, %if.then
  ret void
}