; Function Attrs: mustprogress uwtable
define hidden void @_ZN3nla6basics39basic_lemma_for_mon_neutral_model_basedERKNS_5monicERKNS_13factorizationE(ptr noundef nonnull align 8 dereferenceable(184) %this, ptr noundef nonnull align 8 dereferenceable(34) %rm, ptr noundef nonnull align 8 dereferenceable(16) %f) local_unnamed_addr #3 align 2 {
entry:
  %m_mon.i = getelementptr inbounds i8, ptr %f, i64 8
  %0 = load ptr, ptr %m_mon.i, align 8
  %cmp.i.not = icmp eq ptr %0, null
  %call5 = tail call noundef zeroext i1 @_ZN3nla6basics55basic_lemma_for_mon_neutral_monic_to_factor_model_basedERKNS_5monicERKNS_13factorizationE(ptr noundef nonnull align 8 dereferenceable(184) %this, ptr noundef nonnull align 8 dereferenceable(34) %rm, ptr noundef nonnull align 8 dereferenceable(16) %f)
  br i1 %cmp.i.not, label %if.else, label %if.then

if.then:                                          ; preds = %entry
  %1 = load ptr, ptr %m_mon.i, align 8
  %call4 = tail call noundef zeroext i1 @_ZN3nla6basics64basic_lemma_for_mon_neutral_from_factors_to_monic_model_based_fmERKNS_5monicE(ptr noundef nonnull align 8 dereferenceable(184) %this, ptr noundef nonnull align 8 dereferenceable(34) %1)
  br label %if.end

if.else:                                          ; preds = %entry
  %call6 = tail call noundef zeroext i1 @_ZN3nla6basics61basic_lemma_for_mon_neutral_from_factors_to_monic_model_basedERKNS_5monicERKNS_13factorizationE(ptr noundef nonnull align 8 dereferenceable(184) %this, ptr noundef nonnull align 8 dereferenceable(34) %rm, ptr noundef nonnull align 8 dereferenceable(16) %f)
  br label %if.end

if.end:                                           ; preds = %if.else, %if.then
  ret void
}